target datalayout = "e-m:e-p270:32:32-p271:32:32-p272:64:64-i64:64-i128:128-f80:128-n8:16:32:64-S128"
target triple = "x86_64-unknown-linux-gnu"

%"struct.dd::bdd_manager::bdd_node" = type { i32, i32, i32, i32 }
%"class.dd::bdd_manager" = type { i32, %class.svector, %class.ptr_hashtable, %class.hashtable, %class.svector.2, %class.svector.2, ptr, %class.svector.2, %class.svector.2, %class.svector.2, %class.svector.2, %class.small_object_allocator, %class.svector.2, i32, %class.svector.4, %class.svector.2, i8, i8, i32, %class.svector.2, %class.svector.2, %class.svector.2, %class.vector.6, %class.svector.2, i32, i32 }
%class.svector = type { %class.vector }
%class.vector = type { ptr }
%class.ptr_hashtable = type { %class.core_hashtable.base, [4 x i8] }
%class.core_hashtable.base = type <{ ptr, i32, i32, i32 }>
%class.hashtable = type { %class.core_hashtable.base.1, [4 x i8] }
%class.core_hashtable.base.1 = type <{ ptr, i32, i32, i32 }>
%class.small_object_allocator = type { [32 x ptr], [32 x ptr], i64 }
%class.svector.4 = type { %class.vector.5 }
%class.vector.5 = type { ptr }
%class.vector.6 = type { ptr }
%class.svector.2 = type { %class.vector.3 }
%class.vector.3 = type { ptr }
%"class.dd::bdd" = type { i32, ptr }

@.str.15 = private unnamed_addr constant [104 x i8] c"generated/home/dtcxzyw/WorkSpace/Projects/compilers/llvm-opt-benchmark/bench/z3/z3/src/math/dd/dd_bdd.h\00", align 1
@.str.16 = private unnamed_addr constant [45 x i8] c"Failed to verify: !m_free_nodes.contains(b)\0A\00", align 1

; Function Attrs: mustprogress nounwind uwtable
define linkonce_odr hidden noundef i32 @_ZNK6vectorIjLb0EjE4sizeEv(ptr noundef nonnull align 8 dereferenceable(8) %this) #5 comdat align 2 {
entry:
  %retval = alloca i32, align 4
  %this.addr = alloca ptr, align 8
  store ptr %this, ptr %this.addr, align 8
  %this1 = load ptr, ptr %this.addr, align 8
  %m_data = getelementptr inbounds %class.vector.3, ptr %this1, i32 0, i32 0
  %0 = load ptr, ptr %m_data, align 8
  %cmp = icmp eq ptr %0, null
  br i1 %cmp, label %if.then, label %if.end

if.then:                                          ; preds = %entry
  store i32 0, ptr %retval, align 4
  br label %return

if.end:                                           ; preds = %entry
  %m_data2 = getelementptr inbounds %class.vector.3, ptr %this1, i32 0, i32 0
  %1 = load ptr, ptr %m_data2, align 8
  %arrayidx = getelementptr inbounds i32, ptr %1, i64 -1
  %2 = load i32, ptr %arrayidx, align 4
  store i32 %2, ptr %retval, align 4
  br label %return

return:                                           ; preds = %if.end, %if.then
  %3 = load i32, ptr %retval, align 4
  ret i32 %3
}

; Function Attrs: mustprogress uwtable
define linkonce_odr hidden noundef ptr @_ZNK6vectorIjLb0EjE3endEv(ptr noundef nonnull align 8 dereferenceable(8) %this) #4 comdat align 2 {
entry:
  %this.addr = alloca ptr, align 8
  store ptr %this, ptr %this.addr, align 8
  %this1 = load ptr, ptr %this.addr, align 8
  %m_data = getelementptr inbounds %class.vector.3, ptr %this1, i32 0, i32 0
  %0 = load ptr, ptr %m_data, align 8
  %call = call noundef i32 @_ZNK6vectorIjLb0EjE4sizeEv(ptr noundef nonnull align 8 dereferenceable(8) %this1)
  %idx.ext = zext i32 %call to i64
  %add.ptr = getelementptr inbounds i32, ptr %0, i64 %idx.ext
  ret ptr %add.ptr
}

; Function Attrs: mustprogress nounwind uwtable
define linkonce_odr hidden noundef ptr @_ZNK6vectorIjLb0EjE5beginEv(ptr noundef nonnull align 8 dereferenceable(8) %this) #5 comdat align 2 {
entry:
  %this.addr = alloca ptr, align 8
  store ptr %this, ptr %this.addr, align 8
  %this1 = load ptr, ptr %this.addr, align 8
  %m_data = getelementptr inbounds %class.vector.3, ptr %this1, i32 0, i32 0
  %0 = load ptr, ptr %m_data, align 8
  ret ptr %0
}

; Function Attrs: mustprogress uwtable
define linkonce_odr hidden noundef zeroext i1 @_ZNK6vectorIjLb0EjE8containsERKj(ptr noundef nonnull align 8 dereferenceable(8) %this, ptr noundef nonnull align 4 dereferenceable(4) %elem) #4 comdat align 2 {
entry:
  %retval = alloca i1, align 1
  %this.addr = alloca ptr, align 8
  %elem.addr = alloca ptr, align 8
  %it = alloca ptr, align 8
  %e = alloca ptr, align 8
  store ptr %this, ptr %this.addr, align 8
  store ptr %elem, ptr %elem.addr, align 8
  %this1 = load ptr, ptr %this.addr, align 8
  %call = call noundef ptr @_ZNK6vectorIjLb0EjE5beginEv(ptr noundef nonnull align 8 dereferenceable(8) %this1)
  store ptr %call, ptr %it, align 8
  %call2 = call noundef ptr @_ZNK6vectorIjLb0EjE3endEv(ptr noundef nonnull align 8 dereferenceable(8) %this1)
  store ptr %call2, ptr %e, align 8
  br label %for.cond

for.cond:                                         ; preds = %for.inc, %entry
  %0 = load ptr, ptr %it, align 8
  %1 = load ptr, ptr %e, align 8
  %cmp = icmp ne ptr %0, %1
  br i1 %cmp, label %for.body, label %for.end

for.body:                                         ; preds = %for.cond
  %2 = load ptr, ptr %it, align 8
  %3 = load i32, ptr %2, align 4
  %4 = load ptr, ptr %elem.addr, align 8
  %5 = load i32, ptr %4, align 4
  %cmp3 = icmp eq i32 %3, %5
  br i1 %cmp3, label %if.then, label %if.end

if.then:                                          ; preds = %for.body
  store i1 true, ptr %retval, align 1
  br label %return

if.end:                                           ; preds = %for.body
  br label %for.inc

for.inc:                                          ; preds = %if.end
  %6 = load ptr, ptr %it, align 8
  %incdec.ptr = getelementptr inbounds i32, ptr %6, i32 1
  store ptr %incdec.ptr, ptr %it, align 8
  br label %for.cond, !llvm.loop !76

for.end:                                          ; preds = %for.cond
  store i1 false, ptr %retval, align 1
  br label %return

return:                                           ; preds = %for.end, %if.then
  %7 = load i1, ptr %retval, align 1
  ret i1 %7
}

; Function Attrs: mustprogress nounwind uwtable
define linkonce_odr hidden noundef nonnull align 4 dereferenceable(16) ptr @_ZN6vectorIN2dd11bdd_manager8bdd_nodeELb0EjEixEj(ptr noundef nonnull align 8 dereferenceable(8) %this, i32 noundef %idx) #5 comdat align 2 {
entry:
  %this.addr = alloca ptr, align 8
  %idx.addr = alloca i32, align 4
  store ptr %this, ptr %this.addr, align 8
  store i32 %idx, ptr %idx.addr, align 4
  %this1 = load ptr, ptr %this.addr, align 8
  %m_data = getelementptr inbounds %class.vector, ptr %this1, i32 0, i32 0
  %0 = load ptr, ptr %m_data, align 8
  %1 = load i32, ptr %idx.addr, align 4
  %idxprom = zext i32 %1 to i64
  %arrayidx = getelementptr inbounds %"struct.dd::bdd_manager::bdd_node", ptr %0, i64 %idxprom
  ret ptr %arrayidx
}

; Function Attrs: mustprogress uwtable
define linkonce_odr hidden void @_ZN2dd11bdd_manager7inc_refEj(ptr noundef nonnull align 8 dereferenceable(728) %this, i32 noundef %b) #4 comdat align 2 {
entry:
  %this.addr = alloca ptr, align 8
  %b.addr = alloca i32, align 4
  store ptr %this, ptr %this.addr, align 8
  store i32 %b, ptr %b.addr, align 4
  %this1 = load ptr, ptr %this.addr, align 8
  %m_nodes = getelementptr inbounds %"class.dd::bdd_manager", ptr %this1, i32 0, i32 1
  %0 = load i32, ptr %b.addr, align 4
  %call = call noundef nonnull align 4 dereferenceable(16) ptr @_ZN6vectorIN2dd11bdd_manager8bdd_nodeELb0EjEixEj(ptr noundef nonnull align 8 dereferenceable(8) %m_nodes, i32 noundef %0)
  %bf.load = load i32, ptr %call, align 4
  %bf.clear = and i32 %bf.load, 1023
  %cmp = icmp ne i32 %bf.clear, 1023
  br i1 %cmp, label %if.then, label %if.end

if.then:                                          ; preds = %entry
  %m_nodes2 = getelementptr inbounds %"class.dd::bdd_manager", ptr %this1, i32 0, i32 1
  %1 = load i32, ptr %b.addr, align 4
  %call3 = call noundef nonnull align 4 dereferenceable(16) ptr @_ZN6vectorIN2dd11bdd_manager8bdd_nodeELb0EjEixEj(ptr noundef nonnull align 8 dereferenceable(8) %m_nodes2, i32 noundef %1)
  %bf.load4 = load i32, ptr %call3, align 4
  %bf.clear5 = and i32 %bf.load4, 1023
  %inc = add i32 %bf.clear5, 1
  %bf.load6 = load i32, ptr %call3, align 4
  %bf.value = and i32 %inc, 1023
  %bf.clear7 = and i32 %bf.load6, -1024
  %bf.set = or i32 %bf.clear7, %bf.value
  store i32 %bf.set, ptr %call3, align 4
  br label %if.end

if.end:                                           ; preds = %if.then, %entry
  %m_free_nodes = getelementptr inbounds %"class.dd::bdd_manager", ptr %this1, i32 0, i32 10
  %call8 = call noundef zeroext i1 @_ZNK6vectorIjLb0EjE8containsERKj(ptr noundef nonnull align 8 dereferenceable(8) %m_free_nodes, ptr noundef nonnull align 4 dereferenceable(4) %b.addr)
  br i1 %call8, label %if.then9, label %if.end10

if.then9:                                         ; preds = %if.end
  call void @_Z26notify_assertion_violationPKciS0_(ptr noundef @.str.15, i32 noundef 186, ptr noundef @.str.16)
  call void @exit(i32 noundef 114) #17
  unreachable

if.end10:                                         ; preds = %if.end
  ret void
}

; Function Attrs: mustprogress uwtable
define linkonce_odr hidden void @_ZN2dd3bddC2EjPNS_11bdd_managerE(ptr noundef nonnull align 8 dereferenceable(16) %this, i32 noundef %root, ptr noundef %m) unnamed_addr #4 comdat align 2 {
entry:
  %this.addr = alloca ptr, align 8
  %root.addr = alloca i32, align 4
  %m.addr = alloca ptr, align 8
  store ptr %this, ptr %this.addr, align 8
  store i32 %root, ptr %root.addr, align 4
  store ptr %m, ptr %m.addr, align 8
  %this1 = load ptr, ptr %this.addr, align 8
  %root2 = getelementptr inbounds %"class.dd::bdd", ptr %this1, i32 0, i32 0
  %0 = load i32, ptr %root.addr, align 4
  store i32 %0, ptr %root2, align 8
  %m3 = getelementptr inbounds %"class.dd::bdd", ptr %this1, i32 0, i32 1
  %1 = load ptr, ptr %m.addr, align 8
  store ptr %1, ptr %m3, align 8
  %2 = load ptr, ptr %m.addr, align 8
  %3 = load i32, ptr %root.addr, align 4
  call void @_ZN2dd11bdd_manager7inc_refEj(ptr noundef nonnull align 8 dereferenceable(728) %2, i32 noundef %3)
  ret void
}

; Function Attrs: mustprogress uwtable
define hidden void @_ZN2dd11bdd_manager7mk_trueEv(ptr noalias sret(%"class.dd::bdd") align 8 %agg.result, ptr noundef nonnull align 8 dereferenceable(728) %this) #4 align 2 {
entry:
  %result.ptr = alloca ptr, align 8
  %this.addr = alloca ptr, align 8
  store ptr %agg.result, ptr %result.ptr, align 8
  store ptr %this, ptr %this.addr, align 8
  %this1 = load ptr, ptr %this.addr, align 8
  call void @_ZN2dd3bddC2EjPNS_11bdd_managerE(ptr noundef nonnull align 8 dereferenceable(16) %agg.result, i32 noundef 1, ptr noundef %this1)
  ret void
}